; ModuleID = '20/376.c'
source_filename = "20/376.c"
target datalayout = "e-m:e-p270:32:32-p271:32:32-p272:64:64-i64:64-f80:128-n8:16:32:64-S128"
target triple = "x86_64-pc-linux-gnu"

@.str = private unnamed_addr constant [3 x i8] c"%s\00", align 1

; Function Attrs: noinline nounwind uwtable
define dso_local void @cha(i8* %0) #0 {
  %2 = alloca i8*, align 8
  %3 = alloca [10 x i8], align 1
  %4 = alloca [1000 x i8], align 16
  %5 = alloca i8, align 1
  %6 = alloca i8*, align 8
  %7 = alloca i8*, align 8
  %8 = alloca i8*, align 8
  %9 = alloca i32, align 4
  %10 = alloca i32, align 4
  %11 = alloca i32, align 4
  %12 = alloca i32, align 4
  store i8* %0, i8** %2, align 8
  %13 = getelementptr inbounds [10 x i8], [10 x i8]* %3, i64 0, i64 0
  %14 = call i32 (i8*, ...) @__isoc99_scanf(i8* getelementptr inbounds ([3 x i8], [3 x i8]* @.str, i64 0, i64 0), i8* %13)
  %15 = load i8*, i8** %2, align 8
  %16 = call i64 @strlen(i8* %15) #4
  %17 = trunc i64 %16 to i32
  store i32 %17, i32* %11, align 4
  store i32 0, i32* %10, align 4
  %18 = load i8*, i8** %2, align 8
  store i8* %18, i8** %6, align 8
  %19 = load i8*, i8** %6, align 8
  %20 = load i8, i8* %19, align 1
  store i8 %20, i8* %5, align 1
  store i32 0, i32* %9, align 4
  br label %21

21:                                               ; preds = %43, %1
  %22 = load i32, i32* %9, align 4
  %23 = load i32, i32* %11, align 4
  %24 = icmp slt i32 %22, %23
  br i1 %24, label %25, label %46

25:                                               ; preds = %21
  %26 = load i8*, i8** %6, align 8
  %27 = load i32, i32* %9, align 4
  %28 = sext i32 %27 to i64
  %29 = getelementptr inbounds i8, i8* %26, i64 %28
  %30 = load i8, i8* %29, align 1
  %31 = sext i8 %30 to i32
  %32 = load i8, i8* %5, align 1
  %33 = sext i8 %32 to i32
  %34 = icmp sgt i32 %31, %33
  br i1 %34, label %35, label %42

35:                                               ; preds = %25
  %36 = load i8*, i8** %6, align 8
  %37 = load i32, i32* %9, align 4
  %38 = sext i32 %37 to i64
  %39 = getelementptr inbounds i8, i8* %36, i64 %38
  %40 = load i8, i8* %39, align 1
  store i8 %40, i8* %5, align 1
  %41 = load i32, i32* %9, align 4
  store i32 %41, i32* %10, align 4
  br label %42

42:                                               ; preds = %35, %25
  br label %43

43:                                               ; preds = %42
  %44 = load i32, i32* %9, align 4
  %45 = add nsw i32 %44, 1
  store i32 %45, i32* %9, align 4
  br label %21

46:                                               ; preds = %21
  %47 = load i8*, i8** %2, align 8
  store i8* %47, i8** %6, align 8
  %48 = getelementptr inbounds [1000 x i8], [1000 x i8]* %4, i64 0, i64 0
  store i8* %48, i8** %7, align 8
  %49 = getelementptr inbounds [10 x i8], [10 x i8]* %3, i64 0, i64 0
  store i8* %49, i8** %8, align 8
  %50 = getelementptr inbounds [10 x i8], [10 x i8]* %3, i64 0, i64 0
  %51 = call i64 @strlen(i8* %50) #4
  %52 = trunc i64 %51 to i32
  store i32 %52, i32* %12, align 4
  %53 = load i8*, i8** %7, align 8
  %54 = load i8*, i8** %6, align 8
  %55 = load i32, i32* %10, align 4
  %56 = add nsw i32 %55, 1
  %57 = sext i32 %56 to i64
  %58 = call i8* @strncpy(i8* %53, i8* %54, i64 %57) #5
  %59 = load i8*, i8** %7, align 8
  %60 = load i32, i32* %10, align 4
  %61 = sext i32 %60 to i64
  %62 = getelementptr inbounds i8, i8* %59, i64 %61
  %63 = getelementptr inbounds i8, i8* %62, i64 1
  %64 = load i8*, i8** %8, align 8
  %65 = call i8* @strcpy(i8* %63, i8* %64) #5
  %66 = load i8*, i8** %7, align 8
  %67 = load i32, i32* %10, align 4
  %68 = sext i32 %67 to i64
  %69 = getelementptr inbounds i8, i8* %66, i64 %68
  %70 = load i32, i32* %12, align 4
  %71 = sext i32 %70 to i64
  %72 = getelementptr inbounds i8, i8* %69, i64 %71
  %73 = getelementptr inbounds i8, i8* %72, i64 1
  %74 = load i8*, i8** %6, align 8
  %75 = load i32, i32* %10, align 4
  %76 = sext i32 %75 to i64
  %77 = getelementptr inbounds i8, i8* %74, i64 %76
  %78 = getelementptr inbounds i8, i8* %77, i64 1
  %79 = call i8* @strcpy(i8* %73, i8* %78) #5
  %80 = getelementptr inbounds [1000 x i8], [1000 x i8]* %4, i64 0, i64 0
  %81 = call i32 @puts(i8* %80)
  ret void
}

declare dso_local i32 @__isoc99_scanf(i8*, ...) #1

; Function Attrs: nounwind readonly
declare dso_local i64 @strlen(i8*) #2

; Function Attrs: nounwind
declare dso_local i8* @strncpy(i8*, i8*, i64) #3

; Function Attrs: nounwind
declare dso_local i8* @strcpy(i8*, i8*) #3

declare dso_local i32 @puts(i8*) #1

; Function Attrs: noinline nounwind uwtable
define dso_local void @main() #0 {
  %1 = alloca [100 x i8], align 16
  br label %2

2:                                                ; preds = %6, %0
  %3 = getelementptr inbounds [100 x i8], [100 x i8]* %1, i64 0, i64 0
  %4 = call i32 (i8*, ...) @__isoc99_scanf(i8* getelementptr inbounds ([3 x i8], [3 x i8]* @.str, i64 0, i64 0), i8* %3)
  %5 = icmp ne i32 %4, -1
  br i1 %5, label %6, label %8

6:                                                ; preds = %2
  %7 = getelementptr inbounds [100 x i8], [100 x i8]* %1, i64 0, i64 0
  call void @cha(i8* %7)
  br label %2

8:                                                ; preds = %2
  ret void
}


!llvm.module.flags = !{!0}
!llvm.ident = !{!1}

!0 = !{i32 1, !"wchar_size", i32 4}
!1 = !{!"clang version 10.0.0-4ubuntu1 "}
